; ModuleID = '14/261.c'
source_filename = "14/261.c"
target datalayout = "e-m:e-p270:32:32-p271:32:32-p272:64:64-i64:64-f80:128-n8:16:32:64-S128"
target triple = "x86_64-pc-linux-gnu"

%struct.student = type { i32, i32, i32, i32 }

@.str = private unnamed_addr constant [3 x i8] c"%d\00", align 1
@.str.1 = private unnamed_addr constant [9 x i8] c"%d %d %d\00", align 1
@stu = common dso_local global [100001 x %struct.student] zeroinitializer, align 16
@.str.2 = private unnamed_addr constant [7 x i8] c"%d %d\0A\00", align 1

; Function Attrs: noinline nounwind uwtable
define dso_local i32 @main(i32 %0, i8** %1) #0 {
  %3 = alloca i32, align 4
  %4 = alloca i32, align 4
  %5 = alloca i8**, align 8
  %6 = alloca i32, align 4
  %7 = alloca i32, align 4
  %8 = alloca i32, align 4
  %9 = alloca i32, align 4
  %10 = alloca i32, align 4
  %11 = alloca i32, align 4
  %12 = alloca i32, align 4
  %13 = alloca i32, align 4
  store i32 0, i32* %3, align 4
  store i32 %0, i32* %4, align 4
  store i8** %1, i8*** %5, align 8
  store i32 0, i32* %8, align 4
  store i32 0, i32* %9, align 4
  store i32 0, i32* %10, align 4
  %14 = call i32 (i8*, ...) @__isoc99_scanf(i8* getelementptr inbounds ([3 x i8], [3 x i8]* @.str, i64 0, i64 0), i32* %7)
  store i32 1, i32* %6, align 4
  br label %15

15:                                               ; preds = %101, %2
  %16 = load i32, i32* %6, align 4
  %17 = load i32, i32* %7, align 4
  %18 = icmp sle i32 %16, %17
  br i1 %18, label %19, label %104

19:                                               ; preds = %15
  %20 = load i32, i32* %6, align 4
  %21 = sext i32 %20 to i64
  %22 = getelementptr inbounds [100001 x %struct.student], [100001 x %struct.student]* @stu, i64 0, i64 %21
  %23 = getelementptr inbounds %struct.student, %struct.student* %22, i32 0, i32 0
  %24 = load i32, i32* %6, align 4
  %25 = sext i32 %24 to i64
  %26 = getelementptr inbounds [100001 x %struct.student], [100001 x %struct.student]* @stu, i64 0, i64 %25
  %27 = getelementptr inbounds %struct.student, %struct.student* %26, i32 0, i32 1
  %28 = load i32, i32* %6, align 4
  %29 = sext i32 %28 to i64
  %30 = getelementptr inbounds [100001 x %struct.student], [100001 x %struct.student]* @stu, i64 0, i64 %29
  %31 = getelementptr inbounds %struct.student, %struct.student* %30, i32 0, i32 2
  %32 = call i32 (i8*, ...) @__isoc99_scanf(i8* getelementptr inbounds ([9 x i8], [9 x i8]* @.str.1, i64 0, i64 0), i32* %23, i32* %27, i32* %31)
  %33 = load i32, i32* %6, align 4
  %34 = sext i32 %33 to i64
  %35 = getelementptr inbounds [100001 x %struct.student], [100001 x %struct.student]* @stu, i64 0, i64 %34
  %36 = getelementptr inbounds %struct.student, %struct.student* %35, i32 0, i32 1
  %37 = load i32, i32* %36, align 4
  %38 = load i32, i32* %6, align 4
  %39 = sext i32 %38 to i64
  %40 = getelementptr inbounds [100001 x %struct.student], [100001 x %struct.student]* @stu, i64 0, i64 %39
  %41 = getelementptr inbounds %struct.student, %struct.student* %40, i32 0, i32 2
  %42 = load i32, i32* %41, align 8
  %43 = add nsw i32 %37, %42
  %44 = load i32, i32* %6, align 4
  %45 = sext i32 %44 to i64
  %46 = getelementptr inbounds [100001 x %struct.student], [100001 x %struct.student]* @stu, i64 0, i64 %45
  %47 = getelementptr inbounds %struct.student, %struct.student* %46, i32 0, i32 3
  store i32 %43, i32* %47, align 4
  %48 = load i32, i32* %6, align 4
  %49 = sext i32 %48 to i64
  %50 = getelementptr inbounds [100001 x %struct.student], [100001 x %struct.student]* @stu, i64 0, i64 %49
  %51 = getelementptr inbounds %struct.student, %struct.student* %50, i32 0, i32 3
  %52 = load i32, i32* %51, align 4
  %53 = load i32, i32* %8, align 4
  %54 = icmp sgt i32 %52, %53
  br i1 %54, label %55, label %66

55:                                               ; preds = %19
  %56 = load i32, i32* %9, align 4
  store i32 %56, i32* %10, align 4
  %57 = load i32, i32* %12, align 4
  store i32 %57, i32* %13, align 4
  %58 = load i32, i32* %8, align 4
  store i32 %58, i32* %9, align 4
  %59 = load i32, i32* %11, align 4
  store i32 %59, i32* %12, align 4
  %60 = load i32, i32* %6, align 4
  %61 = sext i32 %60 to i64
  %62 = getelementptr inbounds [100001 x %struct.student], [100001 x %struct.student]* @stu, i64 0, i64 %61
  %63 = getelementptr inbounds %struct.student, %struct.student* %62, i32 0, i32 3
  %64 = load i32, i32* %63, align 4
  store i32 %64, i32* %8, align 4
  %65 = load i32, i32* %6, align 4
  store i32 %65, i32* %11, align 4
  br label %100

66:                                               ; preds = %19
  %67 = load i32, i32* %6, align 4
  %68 = sext i32 %67 to i64
  %69 = getelementptr inbounds [100001 x %struct.student], [100001 x %struct.student]* @stu, i64 0, i64 %68
  %70 = getelementptr inbounds %struct.student, %struct.student* %69, i32 0, i32 3
  %71 = load i32, i32* %70, align 4
  %72 = load i32, i32* %9, align 4
  %73 = icmp sgt i32 %71, %72
  br i1 %73, label %74, label %83

74:                                               ; preds = %66
  %75 = load i32, i32* %9, align 4
  store i32 %75, i32* %10, align 4
  %76 = load i32, i32* %12, align 4
  store i32 %76, i32* %13, align 4
  %77 = load i32, i32* %6, align 4
  %78 = sext i32 %77 to i64
  %79 = getelementptr inbounds [100001 x %struct.student], [100001 x %struct.student]* @stu, i64 0, i64 %78
  %80 = getelementptr inbounds %struct.student, %struct.student* %79, i32 0, i32 3
  %81 = load i32, i32* %80, align 4
  store i32 %81, i32* %9, align 4
  %82 = load i32, i32* %6, align 4
  store i32 %82, i32* %12, align 4
  br label %99

83:                                               ; preds = %66
  %84 = load i32, i32* %6, align 4
  %85 = sext i32 %84 to i64
  %86 = getelementptr inbounds [100001 x %struct.student], [100001 x %struct.student]* @stu, i64 0, i64 %85
  %87 = getelementptr inbounds %struct.student, %struct.student* %86, i32 0, i32 3
  %88 = load i32, i32* %87, align 4
  %89 = load i32, i32* %10, align 4
  %90 = icmp sgt i32 %88, %89
  br i1 %90, label %91, label %98

91:                                               ; preds = %83
  %92 = load i32, i32* %6, align 4
  %93 = sext i32 %92 to i64
  %94 = getelementptr inbounds [100001 x %struct.student], [100001 x %struct.student]* @stu, i64 0, i64 %93
  %95 = getelementptr inbounds %struct.student, %struct.student* %94, i32 0, i32 3
  %96 = load i32, i32* %95, align 4
  store i32 %96, i32* %10, align 4
  %97 = load i32, i32* %6, align 4
  store i32 %97, i32* %13, align 4
  br label %98

98:                                               ; preds = %91, %83
  br label %99

99:                                               ; preds = %98, %74
  br label %100

100:                                              ; preds = %99, %55
  br label %101

101:                                              ; preds = %100
  %102 = load i32, i32* %6, align 4
  %103 = add nsw i32 %102, 1
  store i32 %103, i32* %6, align 4
  br label %15

104:                                              ; preds = %15
  %105 = load i32, i32* %11, align 4
  %106 = sext i32 %105 to i64
  %107 = getelementptr inbounds [100001 x %struct.student], [100001 x %struct.student]* @stu, i64 0, i64 %106
  %108 = getelementptr inbounds %struct.student, %struct.student* %107, i32 0, i32 0
  %109 = load i32, i32* %108, align 16
  %110 = load i32, i32* %11, align 4
  %111 = sext i32 %110 to i64
  %112 = getelementptr inbounds [100001 x %struct.student], [100001 x %struct.student]* @stu, i64 0, i64 %111
  %113 = getelementptr inbounds %struct.student, %struct.student* %112, i32 0, i32 3
  %114 = load i32, i32* %113, align 4
  %115 = call i32 (i8*, ...) @printf(i8* getelementptr inbounds ([7 x i8], [7 x i8]* @.str.2, i64 0, i64 0), i32 %109, i32 %114)
  %116 = load i32, i32* %12, align 4
  %117 = sext i32 %116 to i64
  %118 = getelementptr inbounds [100001 x %struct.student], [100001 x %struct.student]* @stu, i64 0, i64 %117
  %119 = getelementptr inbounds %struct.student, %struct.student* %118, i32 0, i32 0
  %120 = load i32, i32* %119, align 16
  %121 = load i32, i32* %12, align 4
  %122 = sext i32 %121 to i64
  %123 = getelementptr inbounds [100001 x %struct.student], [100001 x %struct.student]* @stu, i64 0, i64 %122
  %124 = getelementptr inbounds %struct.student, %struct.student* %123, i32 0, i32 3
  %125 = load i32, i32* %124, align 4
  %126 = call i32 (i8*, ...) @printf(i8* getelementptr inbounds ([7 x i8], [7 x i8]* @.str.2, i64 0, i64 0), i32 %120, i32 %125)
  %127 = load i32, i32* %13, align 4
  %128 = sext i32 %127 to i64
  %129 = getelementptr inbounds [100001 x %struct.student], [100001 x %struct.student]* @stu, i64 0, i64 %128
  %130 = getelementptr inbounds %struct.student, %struct.student* %129, i32 0, i32 0
  %131 = load i32, i32* %130, align 16
  %132 = load i32, i32* %13, align 4
  %133 = sext i32 %132 to i64
  %134 = getelementptr inbounds [100001 x %struct.student], [100001 x %struct.student]* @stu, i64 0, i64 %133
  %135 = getelementptr inbounds %struct.student, %struct.student* %134, i32 0, i32 3
  %136 = load i32, i32* %135, align 4
  %137 = call i32 (i8*, ...) @printf(i8* getelementptr inbounds ([7 x i8], [7 x i8]* @.str.2, i64 0, i64 0), i32 %131, i32 %136)
  ret i32 0
}

declare dso_local i32 @__isoc99_scanf(i8*, ...) #1

declare dso_local i32 @printf(i8*, ...) #1


!llvm.module.flags = !{!0}
!llvm.ident = !{!1}

!0 = !{i32 1, !"wchar_size", i32 4}
!1 = !{!"clang version 10.0.0-4ubuntu1 "}
